; Function Attrs: mustprogress nounwind uwtable
define internal fastcc void @_ZN6hermes6ESTree6detail11VisitCallerINS_12_GLOBAL__N_15GenJSENS0_18ThisExpressionNodeEvE4callERS4_PS5_PNS0_4NodeE(ptr %v.0.val) unnamed_addr #0 align 2 {
entry:
  %OutBufEnd.i5.i.i = getelementptr inbounds nuw i8, ptr %v.0.val, i64 16
  %0 = load ptr, ptr %OutBufEnd.i5.i.i, align 8
  %OutBufCur.i6.i.i = getelementptr inbounds nuw i8, ptr %v.0.val, i64 24
  %1 = load ptr, ptr %OutBufCur.i6.i.i, align 8
  %sub.ptr.lhs.cast.i7.i.i = ptrtoint ptr %0 to i64
  %sub.ptr.rhs.cast.i8.i.i = ptrtoint ptr %1 to i64
  %sub.ptr.sub.i9.i.i = sub i64 %sub.ptr.lhs.cast.i7.i.i, %sub.ptr.rhs.cast.i8.i.i
  %cmp.i.i.i = icmp ult i64 %sub.ptr.sub.i9.i.i, 4
  br i1 %cmp.i.i.i, label %if.then.i.i.i, label %if.then4.i.i.i

if.then.i.i.i:                                    ; preds = %entry
  %call3.i.i.i = tail call noundef nonnull align 8 dereferenceable(36) ptr @_ZN4llvh11raw_ostream5writeEPKcm(ptr noundef nonnull align 8 dereferenceable(36) %v.0.val, ptr noundef nonnull @.str.300, i64 noundef 4) #12
  br label %_ZN6hermes12_GLOBAL__N_15GenJS5visitEPNS_6ESTree18ThisExpressionNodeE.exit

if.then4.i.i.i:                                   ; preds = %entry
  store i32 1936287860, ptr %1, align 1
  %2 = load ptr, ptr %OutBufCur.i6.i.i, align 8
  %add.ptr.i.i.i = getelementptr inbounds nuw i8, ptr %2, i64 4
  store ptr %add.ptr.i.i.i, ptr %OutBufCur.i6.i.i, align 8
  br label %_ZN6hermes12_GLOBAL__N_15GenJS5visitEPNS_6ESTree18ThisExpressionNodeE.exit

_ZN6hermes12_GLOBAL__N_15GenJS5visitEPNS_6ESTree18ThisExpressionNodeE.exit: ; preds = %if.then.i.i.i, %if.then4.i.i.i
  ret void
}